target datalayout = "e-m:e-p270:32:32-p271:32:32-p272:64:64-i64:64-i128:128-f80:128-n8:16:32:64-S128"
target triple = "x86_64-pc-linux-gnu"

%struct.nameData = type { [64 x i8] }
%struct.FormData_pg_attribute = type { i32, %struct.nameData, i32, i16, i16, i32, i16, i8, i8, i8, i8, i8, i8, i8, i8, i8, i8, i8, i16, i32 }

@SysAtt = internal constant [6 x ptr] [ptr @a1, ptr @a2, ptr @a3, ptr @a4, ptr @a5, ptr @a6], align 16

; Function Attrs: nounwind uwtable
define dso_local ptr @SystemAttributeByName(ptr noundef %0) #0 {
  %2 = alloca ptr, align 8
  %3 = alloca ptr, align 8
  %4 = alloca i32, align 4
  %5 = alloca ptr, align 8
  %6 = alloca i32, align 4
  store ptr %0, ptr %3, align 8
  call void @llvm.lifetime.start.p0(i64 4, ptr %4) #10
  store i32 0, ptr %4, align 4
  br label %7

7:                                                ; preds = %28, %1
  %8 = load i32, ptr %4, align 4
  %9 = icmp slt i32 %8, 6
  br i1 %9, label %10, label %31

10:                                               ; preds = %7
  call void @llvm.lifetime.start.p0(i64 8, ptr %5) #10
  %11 = load i32, ptr %4, align 4
  %12 = sext i32 %11 to i64
  %13 = getelementptr inbounds [6 x ptr], ptr @SysAtt, i64 0, i64 %12
  %14 = load ptr, ptr %13, align 8
  store ptr %14, ptr %5, align 8
  %15 = load ptr, ptr %5, align 8
  %16 = getelementptr inbounds nuw %struct.FormData_pg_attribute, ptr %15, i32 0, i32 1
  %17 = getelementptr inbounds nuw %struct.nameData, ptr %16, i32 0, i32 0
  %18 = getelementptr inbounds [64 x i8], ptr %17, i64 0, i64 0
  %19 = load ptr, ptr %3, align 8
  %20 = call i32 @strcmp(ptr noundef %18, ptr noundef %19) #11
  %21 = icmp eq i32 %20, 0
  br i1 %21, label %22, label %24

22:                                               ; preds = %10
  %23 = load ptr, ptr %5, align 8
  store ptr %23, ptr %2, align 8
  store i32 1, ptr %6, align 4
  br label %25

24:                                               ; preds = %10
  store i32 0, ptr %6, align 4
  br label %25

25:                                               ; preds = %24, %22
  call void @llvm.lifetime.end.p0(i64 8, ptr %5) #10
  %26 = load i32, ptr %6, align 4
  switch i32 %26, label %32 [
    i32 0, label %27
  ]

27:                                               ; preds = %25
  br label %28

28:                                               ; preds = %27
  %29 = load i32, ptr %4, align 4
  %30 = add i32 %29, 1
  store i32 %30, ptr %4, align 4
  br label %7, !llvm.loop !4

31:                                               ; preds = %7
  store ptr null, ptr %2, align 8
  store i32 1, ptr %6, align 4
  br label %32

32:                                               ; preds = %31, %25
  call void @llvm.lifetime.end.p0(i64 4, ptr %4) #10
  %33 = load ptr, ptr %2, align 8
  ret ptr %33
}