; Function Attrs: nofree nounwind memory(read, inaccessiblemem: none) uwtable
define dso_local ptr @SystemAttributeByName(ptr noundef readonly captures(none) %0) local_unnamed_addr #4 {
  br label %3

2:                                                ; preds = %3
  %indvars.iv.next = add nuw nsw i64 %indvars.iv, 1
  %exitcond.not = icmp eq i64 %indvars.iv.next, 6
  br i1 %exitcond.not, label %8, label %3, !llvm.loop !4

3:                                                ; preds = %1, %2
  %indvars.iv = phi i64 [ 0, %1 ], [ %indvars.iv.next, %2 ]
  %4 = getelementptr inbounds nuw [6 x ptr], ptr @SysAtt, i64 0, i64 %indvars.iv
  %5 = load ptr, ptr %4, align 8
  %6 = getelementptr inbounds nuw i8, ptr %5, i64 4
  %7 = tail call i32 @strcmp(ptr noundef nonnull dereferenceable(1) %6, ptr noundef nonnull dereferenceable(1) %0) #12
  %.not = icmp eq i32 %7, 0
  br i1 %.not, label %8, label %2

8:                                                ; preds = %2, %3
  %.2 = phi ptr [ %5, %3 ], [ null, %2 ]
  ret ptr %.2
}